; ModuleID = '21/1190.c'
source_filename = "21/1190.c"
target datalayout = "e-m:e-p270:32:32-p271:32:32-p272:64:64-i64:64-f80:128-n8:16:32:64-S128"
target triple = "x86_64-pc-linux-gnu"

@.str = private unnamed_addr constant [3 x i8] c"%d\00", align 1
@.str.1 = private unnamed_addr constant [2 x i8] c",\00", align 1

; Function Attrs: noinline nounwind uwtable
define dso_local i32 @a(i32 %0) #0 {
  %2 = alloca i32, align 4
  %3 = alloca i32, align 4
  store i32 %0, i32* %3, align 4
  %4 = load i32, i32* %3, align 4
  %5 = icmp sgt i32 %4, 0
  br i1 %5, label %6, label %8

6:                                                ; preds = %1
  %7 = load i32, i32* %3, align 4
  store i32 %7, i32* %2, align 4
  br label %11

8:                                                ; preds = %1
  %9 = load i32, i32* %3, align 4
  %10 = sub nsw i32 0, %9
  store i32 %10, i32* %2, align 4
  br label %11

11:                                               ; preds = %8, %6
  %12 = load i32, i32* %2, align 4
  ret i32 %12
}

; Function Attrs: noinline nounwind uwtable
define dso_local i32 @main() #0 {
  %1 = alloca i32, align 4
  %2 = alloca [300 x i32], align 16
  %3 = alloca i32, align 4
  %4 = alloca i32, align 4
  %5 = alloca i32, align 4
  %6 = alloca i32, align 4
  %7 = alloca i32, align 4
  store i32 0, i32* %1, align 4
  store i32 1, i32* %5, align 4
  store i32 0, i32* %6, align 4
  store i32 0, i32* %7, align 4
  %8 = call i32 (i8*, ...) @__isoc99_scanf(i8* getelementptr inbounds ([3 x i8], [3 x i8]* @.str, i64 0, i64 0), i32* %3)
  store i32 1, i32* %4, align 4
  br label %9

9:                                                ; preds = %24, %0
  %10 = load i32, i32* %4, align 4
  %11 = load i32, i32* %3, align 4
  %12 = icmp sle i32 %10, %11
  br i1 %12, label %13, label %27

13:                                               ; preds = %9
  %14 = load i32, i32* %4, align 4
  %15 = sext i32 %14 to i64
  %16 = getelementptr inbounds [300 x i32], [300 x i32]* %2, i64 0, i64 %15
  %17 = call i32 (i8*, ...) @__isoc99_scanf(i8* getelementptr inbounds ([3 x i8], [3 x i8]* @.str, i64 0, i64 0), i32* %16)
  %18 = load i32, i32* %4, align 4
  %19 = sext i32 %18 to i64
  %20 = getelementptr inbounds [300 x i32], [300 x i32]* %2, i64 0, i64 %19
  %21 = load i32, i32* %20, align 4
  %22 = load i32, i32* %6, align 4
  %23 = add nsw i32 %22, %21
  store i32 %23, i32* %6, align 4
  br label %24

24:                                               ; preds = %13
  %25 = load i32, i32* %4, align 4
  %26 = add nsw i32 %25, 1
  store i32 %26, i32* %4, align 4
  br label %9

27:                                               ; preds = %9
  store i32 1, i32* %4, align 4
  br label %28

28:                                               ; preds = %55, %27
  %29 = load i32, i32* %4, align 4
  %30 = load i32, i32* %3, align 4
  %31 = icmp sle i32 %29, %30
  br i1 %31, label %32, label %58

32:                                               ; preds = %28
  %33 = load i32, i32* %7, align 4
  %34 = load i32, i32* %4, align 4
  %35 = sext i32 %34 to i64
  %36 = getelementptr inbounds [300 x i32], [300 x i32]* %2, i64 0, i64 %35
  %37 = load i32, i32* %36, align 4
  %38 = load i32, i32* %3, align 4
  %39 = mul nsw i32 %37, %38
  %40 = load i32, i32* %6, align 4
  %41 = sub nsw i32 %39, %40
  %42 = call i32 @a(i32 %41)
  %43 = icmp slt i32 %33, %42
  br i1 %43, label %44, label %54

44:                                               ; preds = %32
  %45 = load i32, i32* %4, align 4
  %46 = sext i32 %45 to i64
  %47 = getelementptr inbounds [300 x i32], [300 x i32]* %2, i64 0, i64 %46
  %48 = load i32, i32* %47, align 4
  %49 = load i32, i32* %3, align 4
  %50 = mul nsw i32 %48, %49
  %51 = load i32, i32* %6, align 4
  %52 = sub nsw i32 %50, %51
  %53 = call i32 @a(i32 %52)
  store i32 %53, i32* %7, align 4
  br label %54

54:                                               ; preds = %44, %32
  br label %55

55:                                               ; preds = %54
  %56 = load i32, i32* %4, align 4
  %57 = add nsw i32 %56, 1
  store i32 %57, i32* %4, align 4
  br label %28

58:                                               ; preds = %28
  store i32 1, i32* %4, align 4
  br label %59

59:                                               ; preds = %86, %58
  %60 = load i32, i32* %4, align 4
  %61 = load i32, i32* %3, align 4
  %62 = icmp sle i32 %60, %61
  br i1 %62, label %63, label %89

63:                                               ; preds = %59
  %64 = load i32, i32* %7, align 4
  %65 = load i32, i32* %6, align 4
  %66 = load i32, i32* %4, align 4
  %67 = sext i32 %66 to i64
  %68 = getelementptr inbounds [300 x i32], [300 x i32]* %2, i64 0, i64 %67
  %69 = load i32, i32* %68, align 4
  %70 = load i32, i32* %3, align 4
  %71 = mul nsw i32 %69, %70
  %72 = sub nsw i32 %65, %71
  %73 = icmp eq i32 %64, %72
  br i1 %73, label %74, label %85

74:                                               ; preds = %63
  %75 = load i32, i32* %5, align 4
  %76 = icmp eq i32 %75, 0
  br i1 %76, label %77, label %79

77:                                               ; preds = %74
  %78 = call i32 (i8*, ...) @printf(i8* getelementptr inbounds ([2 x i8], [2 x i8]* @.str.1, i64 0, i64 0))
  br label %79

79:                                               ; preds = %77, %74
  store i32 0, i32* %5, align 4
  %80 = load i32, i32* %4, align 4
  %81 = sext i32 %80 to i64
  %82 = getelementptr inbounds [300 x i32], [300 x i32]* %2, i64 0, i64 %81
  %83 = load i32, i32* %82, align 4
  %84 = call i32 (i8*, ...) @printf(i8* getelementptr inbounds ([3 x i8], [3 x i8]* @.str, i64 0, i64 0), i32 %83)
  br label %85

85:                                               ; preds = %79, %63
  br label %86

86:                                               ; preds = %85
  %87 = load i32, i32* %4, align 4
  %88 = add nsw i32 %87, 1
  store i32 %88, i32* %4, align 4
  br label %59

89:                                               ; preds = %59
  store i32 1, i32* %4, align 4
  br label %90

90:                                               ; preds = %118, %89
  %91 = load i32, i32* %4, align 4
  %92 = load i32, i32* %3, align 4
  %93 = icmp sle i32 %91, %92
  br i1 %93, label %94, label %121

94:                                               ; preds = %90
  %95 = load i32, i32* %7, align 4
  %96 = load i32, i32* %6, align 4
  %97 = sub nsw i32 0, %96
  %98 = load i32, i32* %4, align 4
  %99 = sext i32 %98 to i64
  %100 = getelementptr inbounds [300 x i32], [300 x i32]* %2, i64 0, i64 %99
  %101 = load i32, i32* %100, align 4
  %102 = load i32, i32* %3, align 4
  %103 = mul nsw i32 %101, %102
  %104 = add nsw i32 %97, %103
  %105 = icmp eq i32 %95, %104
  br i1 %105, label %106, label %117

106:                                              ; preds = %94
  %107 = load i32, i32* %5, align 4
  %108 = icmp eq i32 %107, 0
  br i1 %108, label %109, label %111

109:                                              ; preds = %106
  %110 = call i32 (i8*, ...) @printf(i8* getelementptr inbounds ([2 x i8], [2 x i8]* @.str.1, i64 0, i64 0))
  br label %111

111:                                              ; preds = %109, %106
  store i32 0, i32* %5, align 4
  %112 = load i32, i32* %4, align 4
  %113 = sext i32 %112 to i64
  %114 = getelementptr inbounds [300 x i32], [300 x i32]* %2, i64 0, i64 %113
  %115 = load i32, i32* %114, align 4
  %116 = call i32 (i8*, ...) @printf(i8* getelementptr inbounds ([3 x i8], [3 x i8]* @.str, i64 0, i64 0), i32 %115)
  br label %117

117:                                              ; preds = %111, %94
  br label %118

118:                                              ; preds = %117
  %119 = load i32, i32* %4, align 4
  %120 = add nsw i32 %119, 1
  store i32 %120, i32* %4, align 4
  br label %90

121:                                              ; preds = %90
  ret i32 0
}

declare dso_local i32 @__isoc99_scanf(i8*, ...) #1

declare dso_local i32 @printf(i8*, ...) #1


!llvm.module.flags = !{!0}
!llvm.ident = !{!1}

!0 = !{i32 1, !"wchar_size", i32 4}
!1 = !{!"clang version 10.0.0-4ubuntu1 "}
